; Function Attrs: mustprogress uwtable
define void @_ZN10open_spiel11tiny_bridge10HandStringB5cxx11El(ptr dead_on_unwind noalias writable sret(%"class.std::__cxx11::basic_string") align 8 %0, i64 noundef %1) local_unnamed_addr #3 personality ptr @__gxx_personality_v0 {
  %3 = alloca %"class.absl::debian2::AlphaNum", align 8
  %4 = alloca %"class.std::__cxx11::basic_string", align 8
  %5 = alloca %"class.absl::debian2::AlphaNum", align 8
  %6 = alloca %"class.std::__cxx11::basic_string", align 8
  %7 = trunc i64 %1 to i32
  br label %8

8:                                                ; preds = %8, %2
  %storemerge.i = phi i32 [ 1, %2 ], [ %9, %8 ]
  %9 = add nuw nsw i32 %storemerge.i, 1
  %10 = mul nuw nsw i32 %9, %storemerge.i
  %11 = lshr i32 %10, 1
  %.not.i = icmp sgt i32 %11, %7
  br i1 %.not.i, label %_ZN10open_spiel11tiny_bridge12_GLOBAL__N_120ChanceOutcomeToCardsEi.exit, label %8, !llvm.loop !4

_ZN10open_spiel11tiny_bridge12_GLOBAL__N_120ChanceOutcomeToCardsEi.exit: ; preds = %8
  call fastcc void @_ZN10open_spiel11tiny_bridge12_GLOBAL__N_110CardStringB5cxx11Ei(ptr dead_on_unwind noalias nonnull writable align 8 %4, i32 noundef %storemerge.i)
  %12 = call noundef ptr @_ZNKSt7__cxx1112basic_stringIcSt11char_traitsIcESaIcEE4dataEv(ptr noundef nonnull align 8 dereferenceable(32) %4) #27
  %13 = call noundef i64 @_ZNKSt7__cxx1112basic_stringIcSt11char_traitsIcESaIcEE4sizeEv(ptr noundef nonnull align 8 dereferenceable(32) %4) #27
  store ptr %12, ptr %3, align 8
  %14 = icmp sgt i64 %13, -1
  br i1 %14, label %_ZN4absl7debian28AlphaNumC2ISaIcEEERKNSt7__cxx1112basic_stringIcSt11char_traitsIcET_EE.exit, label %15

15:                                               ; preds = %_ZN10open_spiel11tiny_bridge12_GLOBAL__N_120ChanceOutcomeToCardsEi.exit
  call void @llvm.trap()
  unreachable

_ZN4absl7debian28AlphaNumC2ISaIcEEERKNSt7__cxx1112basic_stringIcSt11char_traitsIcET_EE.exit: ; preds = %_ZN10open_spiel11tiny_bridge12_GLOBAL__N_120ChanceOutcomeToCardsEi.exit
  %16 = add nsw i32 %storemerge.i, -1
  %17 = mul nsw i32 %16, %storemerge.i
  %.neg.i = sdiv i32 %17, -2
  %18 = add i32 %.neg.i, %7
  %19 = getelementptr inbounds nuw i8, ptr %3, i64 8
  store i64 %13, ptr %19, align 8
  invoke fastcc void @_ZN10open_spiel11tiny_bridge12_GLOBAL__N_110CardStringB5cxx11Ei(ptr dead_on_unwind noalias nonnull writable align 8 %6, i32 noundef %18)
          to label %20 unwind label %27

20:                                               ; preds = %_ZN4absl7debian28AlphaNumC2ISaIcEEERKNSt7__cxx1112basic_stringIcSt11char_traitsIcET_EE.exit
  %21 = call noundef ptr @_ZNKSt7__cxx1112basic_stringIcSt11char_traitsIcESaIcEE4dataEv(ptr noundef nonnull align 8 dereferenceable(32) %6) #27
  %22 = call noundef i64 @_ZNKSt7__cxx1112basic_stringIcSt11char_traitsIcESaIcEE4sizeEv(ptr noundef nonnull align 8 dereferenceable(32) %6) #27
  store ptr %21, ptr %5, align 8
  %23 = icmp sgt i64 %22, -1
  br i1 %23, label %_ZN4absl7debian28AlphaNumC2ISaIcEEERKNSt7__cxx1112basic_stringIcSt11char_traitsIcET_EE.exit4, label %24

24:                                               ; preds = %20
  call void @llvm.trap()
  unreachable

_ZN4absl7debian28AlphaNumC2ISaIcEEERKNSt7__cxx1112basic_stringIcSt11char_traitsIcET_EE.exit4: ; preds = %20
  %25 = getelementptr inbounds nuw i8, ptr %5, i64 8
  store i64 %22, ptr %25, align 8
  invoke void @_ZN4absl7debian26StrCatB5cxx11ERKNS0_8AlphaNumES3_(ptr dead_on_unwind writable sret(%"class.std::__cxx11::basic_string") align 8 %0, ptr noundef nonnull align 8 dereferenceable(48) %3, ptr noundef nonnull align 8 dereferenceable(48) %5)
          to label %26 unwind label %29

26:                                               ; preds = %_ZN4absl7debian28AlphaNumC2ISaIcEEERKNSt7__cxx1112basic_stringIcSt11char_traitsIcET_EE.exit4
  call void @_ZNSt7__cxx1112basic_stringIcSt11char_traitsIcESaIcEED1Ev(ptr noundef nonnull align 8 dereferenceable(32) %6) #27
  call void @_ZNSt7__cxx1112basic_stringIcSt11char_traitsIcESaIcEED1Ev(ptr noundef nonnull align 8 dereferenceable(32) %4) #27
  ret void

27:                                               ; preds = %_ZN4absl7debian28AlphaNumC2ISaIcEEERKNSt7__cxx1112basic_stringIcSt11char_traitsIcET_EE.exit
  %28 = landingpad { ptr, i32 }
          cleanup
  br label %31

29:                                               ; preds = %_ZN4absl7debian28AlphaNumC2ISaIcEEERKNSt7__cxx1112basic_stringIcSt11char_traitsIcET_EE.exit4
  %30 = landingpad { ptr, i32 }
          cleanup
  call void @_ZNSt7__cxx1112basic_stringIcSt11char_traitsIcESaIcEED1Ev(ptr noundef nonnull align 8 dereferenceable(32) %6) #27
  br label %31

31:                                               ; preds = %29, %27
  %.pn = phi { ptr, i32 } [ %30, %29 ], [ %28, %27 ]
  call void @_ZNSt7__cxx1112basic_stringIcSt11char_traitsIcESaIcEED1Ev(ptr noundef nonnull align 8 dereferenceable(32) %4) #27
  resume { ptr, i32 } %.pn
}